; Function Attrs: nounwind uwtable
define ptr @l_Lake_PackageDecl_loadFromEnv(ptr noundef %0, ptr noundef %1) local_unnamed_addr #2 {
  %3 = load ptr, ptr @l_Lake_PackageDecl_loadFromEnv___closed__1, align 8, !tbaa !4
  %4 = ptrtoint ptr %0 to i64
  %5 = and i64 %4, 1
  %.not = icmp eq i64 %5, 0
  br i1 %.not, label %6, label %lean_inc.exit28

6:                                                ; preds = %2
  %.val.i = load i32, ptr %0, align 4, !tbaa !8
  %7 = icmp sgt i32 %.val.i, 0
  br i1 %7, label %8, label %10, !prof !11

8:                                                ; preds = %6
  %9 = add nuw i32 %.val.i, 1
  store i32 %9, ptr %0, align 4, !tbaa !8
  br label %lean_inc.exit28

10:                                               ; preds = %6
  %.not.i37 = icmp eq i32 %.val.i, 0
  br i1 %.not.i37, label %lean_inc.exit28, label %11

11:                                               ; preds = %10
  tail call void @lean_inc_ref_cold(ptr noundef nonnull %0) #5
  br label %lean_inc.exit28

lean_inc.exit28:                                  ; preds = %11, %10, %8, %2
  %12 = tail call ptr @l_Lake_OrderedTagAttribute_getAllEntries(ptr noundef %3, ptr noundef %0) #5
  %13 = tail call ptr @lean_array_to_list(ptr noundef %12) #5
  %14 = ptrtoint ptr %13 to i64
  %15 = and i64 %14, 1
  %.not.i38 = icmp eq i64 %15, 0
  br i1 %.not.i38, label %19, label %16

16:                                               ; preds = %lean_inc.exit28
  %17 = lshr i64 %14, 1
  %18 = trunc i64 %17 to i32
  br label %lean_obj_tag.exit

19:                                               ; preds = %lean_inc.exit28
  %20 = getelementptr i8, ptr %13, i64 4
  %.val.i39 = load i32, ptr %20, align 4
  %21 = lshr i32 %.val.i39, 24
  br label %lean_obj_tag.exit

lean_obj_tag.exit:                                ; preds = %16, %19
  %.0.i = phi i32 [ %18, %16 ], [ %21, %19 ]
  %22 = icmp eq i32 %.0.i, 0
  br i1 %22, label %23, label %32

23:                                               ; preds = %lean_obj_tag.exit
  br i1 %.not, label %24, label %lean_dec.exit26

24:                                               ; preds = %23
  %25 = load i32, ptr %0, align 4, !tbaa !8
  %26 = icmp sgt i32 %25, 1
  br i1 %26, label %27, label %29, !prof !11

27:                                               ; preds = %24
  %28 = add nsw i32 %25, -1
  store i32 %28, ptr %0, align 4, !tbaa !8
  br label %lean_dec.exit26

29:                                               ; preds = %24
  %.not.i = icmp eq i32 %25, 0
  br i1 %.not.i, label %lean_dec.exit26, label %30

30:                                               ; preds = %29
  tail call void @lean_dec_ref_cold(ptr noundef nonnull %0) #5
  br label %lean_dec.exit26

lean_dec.exit26:                                  ; preds = %30, %29, %27, %23
  %31 = load ptr, ptr @l_Lake_PackageDecl_loadFromEnv___closed__3, align 8, !tbaa !4
  br label %88

32:                                               ; preds = %lean_obj_tag.exit
  %33 = getelementptr inbounds nuw i8, ptr %13, i64 8
  %34 = getelementptr inbounds nuw i8, ptr %13, i64 16
  %35 = load ptr, ptr %34, align 8, !tbaa !4
  %36 = ptrtoint ptr %35 to i64
  %37 = and i64 %36, 1
  %.not52 = icmp eq i64 %37, 0
  br i1 %.not52, label %38, label %lean_obj_tag.exit46

38:                                               ; preds = %32
  %.val.i40 = load i32, ptr %35, align 4, !tbaa !8
  %39 = icmp sgt i32 %.val.i40, 0
  br i1 %39, label %40, label %42, !prof !11

40:                                               ; preds = %38
  %41 = add nuw i32 %.val.i40, 1
  store i32 %41, ptr %35, align 4, !tbaa !8
  br label %lean_obj_tag.exit46.thread

42:                                               ; preds = %38
  %.not.i41 = icmp eq i32 %.val.i40, 0
  br i1 %.not.i41, label %lean_obj_tag.exit46.thread, label %43

43:                                               ; preds = %42
  tail call void @lean_inc_ref_cold(ptr noundef nonnull %35) #5
  br label %lean_obj_tag.exit46.thread

lean_obj_tag.exit46:                              ; preds = %32
  %44 = and i64 %36, 8589934590
  %45 = icmp eq i64 %44, 0
  br i1 %45, label %48, label %lean_dec.exit24

lean_obj_tag.exit46.thread:                       ; preds = %40, %42, %43
  %46 = getelementptr i8, ptr %35, i64 4
  %.val.i45 = load i32, ptr %46, align 4
  %47 = icmp ult i32 %.val.i45, 16777216
  br i1 %47, label %48, label %.thread

48:                                               ; preds = %lean_obj_tag.exit46.thread, %lean_obj_tag.exit46
  %49 = load ptr, ptr %33, align 8, !tbaa !4
  %50 = ptrtoint ptr %49 to i64
  %51 = and i64 %50, 1
  %.not54 = icmp eq i64 %51, 0
  br i1 %.not54, label %52, label %lean_inc.exit

52:                                               ; preds = %48
  %.val.i47 = load i32, ptr %49, align 4, !tbaa !8
  %53 = icmp sgt i32 %.val.i47, 0
  br i1 %53, label %54, label %56, !prof !11

54:                                               ; preds = %52
  %55 = add nuw i32 %.val.i47, 1
  store i32 %55, ptr %49, align 4, !tbaa !8
  br label %lean_inc.exit

56:                                               ; preds = %52
  %.not.i48 = icmp eq i32 %.val.i47, 0
  br i1 %.not.i48, label %lean_inc.exit, label %57

57:                                               ; preds = %56
  tail call void @lean_inc_ref_cold(ptr noundef nonnull %49) #5
  br label %lean_inc.exit

lean_inc.exit:                                    ; preds = %57, %56, %54, %48
  br i1 %.not.i38, label %58, label %lean_dec.exit25

58:                                               ; preds = %lean_inc.exit
  %59 = load i32, ptr %13, align 4, !tbaa !8
  %60 = icmp sgt i32 %59, 1
  br i1 %60, label %61, label %63, !prof !11

61:                                               ; preds = %58
  %62 = add nsw i32 %59, -1
  store i32 %62, ptr %13, align 4, !tbaa !8
  br label %lean_dec.exit25

63:                                               ; preds = %58
  %.not.i29 = icmp eq i32 %59, 0
  br i1 %.not.i29, label %lean_dec.exit25, label %64

64:                                               ; preds = %63
  tail call void @lean_dec_ref_cold(ptr noundef nonnull %13) #5
  br label %lean_dec.exit25

lean_dec.exit25:                                  ; preds = %64, %63, %61, %lean_inc.exit
  %65 = load ptr, ptr @l_Lake_instTypeNamePackageDecl, align 8, !tbaa !4
  %66 = tail call ptr @l_Lake_unsafeEvalConstCheck(ptr noundef %0, ptr noundef %1, ptr nonnull poison, ptr noundef %65, ptr noundef %49)
  br label %88

.thread:                                          ; preds = %lean_obj_tag.exit46.thread
  %67 = load i32, ptr %35, align 4, !tbaa !8
  %68 = icmp sgt i32 %67, 1
  br i1 %68, label %69, label %71, !prof !11

69:                                               ; preds = %.thread
  %70 = add nsw i32 %67, -1
  store i32 %70, ptr %35, align 4, !tbaa !8
  br label %lean_dec.exit24

71:                                               ; preds = %.thread
  %.not.i31 = icmp eq i32 %67, 0
  br i1 %.not.i31, label %lean_dec.exit24, label %72

72:                                               ; preds = %71
  tail call void @lean_dec_ref_cold(ptr noundef nonnull %35) #5
  br label %lean_dec.exit24

lean_dec.exit24:                                  ; preds = %lean_obj_tag.exit46, %72, %71, %69
  br i1 %.not.i38, label %73, label %lean_dec.exit23

73:                                               ; preds = %lean_dec.exit24
  %74 = load i32, ptr %13, align 4, !tbaa !8
  %75 = icmp sgt i32 %74, 1
  br i1 %75, label %76, label %78, !prof !11

76:                                               ; preds = %73
  %77 = add nsw i32 %74, -1
  store i32 %77, ptr %13, align 4, !tbaa !8
  br label %lean_dec.exit23

78:                                               ; preds = %73
  %.not.i33 = icmp eq i32 %74, 0
  br i1 %.not.i33, label %lean_dec.exit23, label %79

79:                                               ; preds = %78
  tail call void @lean_dec_ref_cold(ptr noundef nonnull %13) #5
  br label %lean_dec.exit23

lean_dec.exit23:                                  ; preds = %79, %78, %76, %lean_dec.exit24
  br i1 %.not, label %80, label %lean_dec.exit

80:                                               ; preds = %lean_dec.exit23
  %81 = load i32, ptr %0, align 4, !tbaa !8
  %82 = icmp sgt i32 %81, 1
  br i1 %82, label %83, label %85, !prof !11

83:                                               ; preds = %80
  %84 = add nsw i32 %81, -1
  store i32 %84, ptr %0, align 4, !tbaa !8
  br label %lean_dec.exit

85:                                               ; preds = %80
  %.not.i35 = icmp eq i32 %81, 0
  br i1 %.not.i35, label %lean_dec.exit, label %86

86:                                               ; preds = %85
  tail call void @lean_dec_ref_cold(ptr noundef nonnull %0) #5
  br label %lean_dec.exit

lean_dec.exit:                                    ; preds = %86, %85, %83, %lean_dec.exit23
  %87 = load ptr, ptr @l_Lake_PackageDecl_loadFromEnv___closed__5, align 8, !tbaa !4
  br label %88

88:                                               ; preds = %lean_dec.exit25, %lean_dec.exit, %lean_dec.exit26
  %.0 = phi ptr [ %31, %lean_dec.exit26 ], [ %66, %lean_dec.exit25 ], [ %87, %lean_dec.exit ]
  ret ptr %.0
}